; Function Attrs: mustprogress nofree norecurse nosync nounwind willreturn memory(read, inaccessiblemem: none) uwtable
define noundef range(i32 -2147483647, -2147483648) i32 @_ZNK6icu_7716BytesTrieBuilder23skipElementsBySomeUnitsEiii(ptr noundef nonnull readonly align 8 captures(none) dereferenceable(56) %0, i32 noundef %1, i32 noundef %2, i32 noundef %3) unnamed_addr #14 align 2 {
  %5 = getelementptr inbounds nuw i8, ptr %0, i64 24
  %6 = load ptr, ptr %5, align 8, !tbaa !30
  %7 = getelementptr inbounds nuw i8, ptr %0, i64 16
  %8 = load ptr, ptr %7, align 8, !tbaa !23
  %9 = load ptr, ptr %8, align 8, !tbaa !3
  %10 = sext i32 %2 to i64
  %invariant.gep12 = getelementptr i8, ptr %9, i64 %10
  br label %11

11:                                               ; preds = %23, %4
  %.08 = phi i32 [ %3, %4 ], [ %25, %23 ]
  %.0 = phi i32 [ %1, %4 ], [ %24, %23 ]
  %12 = sext i32 %.0 to i64
  %13 = getelementptr inbounds %"class.icu_77::BytesTrieElement", ptr %6, i64 %12
  %14 = load i32, ptr %13, align 4, !tbaa !17
  %.0.p.i.i = tail call i32 @llvm.abs.i32(i32 %14, i1 false)
  %.0.i.i = add nuw i32 %.0.p.i.i, 1
  %15 = zext nneg i32 %.0.i.i to i64
  %gep13 = getelementptr i8, ptr %invariant.gep12, i64 %15
  %16 = load i8, ptr %gep13, align 1, !tbaa !20
  br label %17

17:                                               ; preds = %17, %11
  %indvars.iv = phi i64 [ %indvars.iv.next, %17 ], [ %12, %11 ]
  %indvars.iv.next = add nsw i64 %indvars.iv, 1
  %18 = getelementptr inbounds %"class.icu_77::BytesTrieElement", ptr %6, i64 %indvars.iv.next
  %19 = load i32, ptr %18, align 4, !tbaa !17
  %.0.p.i.i10 = tail call i32 @llvm.abs.i32(i32 %19, i1 false)
  %.0.i.i11 = add nuw i32 %.0.p.i.i10, 1
  %20 = zext nneg i32 %.0.i.i11 to i64
  %gep = getelementptr i8, ptr %invariant.gep12, i64 %20
  %21 = load i8, ptr %gep, align 1, !tbaa !20
  %22 = icmp eq i8 %16, %21
  br i1 %22, label %17, label %23, !llvm.loop !45

23:                                               ; preds = %17
  %24 = trunc nsw i64 %indvars.iv.next to i32
  %25 = add nsw i32 %.08, -1
  %26 = icmp sgt i32 %.08, 1
  br i1 %26, label %11, label %27, !llvm.loop !46

27:                                               ; preds = %23
  ret i32 %24
}